target datalayout = "e-m:e-p270:32:32-p271:32:32-p272:64:64-i64:64-i128:128-f80:128-n8:16:32:64-S128"
target triple = "x86_64-pc-linux-gnu"

%struct.slurm_conf_t = type { i64, ptr, i16, ptr, ptr, ptr, ptr, ptr, i16, ptr, ptr, ptr, ptr, ptr, ptr, ptr, i16, ptr, ptr, ptr, ptr, i16, ptr, ptr, ptr, i64, ptr, ptr, ptr, ptr, i16, ptr, ptr, i16, i32, ptr, i32, ptr, i32, i32, ptr, ptr, i64, i64, ptr, i16, i16, ptr, i32, i32, ptr, i32, ptr, i32, i16, i16, i16, ptr, i16, i16, ptr, ptr, i32, i16, i16, ptr, i32, i16, ptr, ptr, ptr, ptr, i16, ptr, ptr, ptr, ptr, i32, ptr, ptr, ptr, ptr, i16, i16, ptr, i32, i32, i32, i16, i16, ptr, ptr, i16, ptr, ptr, i32, i32, i32, i32, i32, i64, i32, i32, i16, ptr, ptr, i32, ptr, ptr, ptr, i16, i32, ptr, ptr, i16, ptr, ptr, i32, i16, ptr, ptr, ptr, ptr, i32, i32, i16, i16, i32, ptr, i16, ptr, i32, i32, i32, i32, i32, i32, ptr, i16, ptr, ptr, i32, i16, ptr, i32, i16, i16, ptr, ptr, ptr, i16, ptr, ptr, ptr, ptr, i16, i16, ptr, i16, ptr, i16, ptr, i16, ptr, i16, ptr, ptr, ptr, ptr, i16, ptr, ptr, ptr, i32, ptr, i32, ptr, ptr, i16, ptr, ptr, i32, i16, ptr, ptr, i16, i16, ptr, i16, ptr, ptr, ptr, i32, ptr, i16, i16, ptr, ptr, ptr, ptr, ptr, ptr, ptr, ptr, i16, i32, i16, ptr, ptr, ptr, ptr, i32, ptr, ptr, ptr, i16, ptr, ptr, ptr, i16, ptr, i16, ptr, i16, i16, ptr }
%union.pthread_mutex_t = type { %struct.__pthread_mutex_s }
%struct.__pthread_mutex_s = type { i32, i32, i32, i32, i32, i16, i16, %struct.__pthread_internal_list }
%struct.__pthread_internal_list = type { ptr, ptr }
%struct.sockaddr_storage = type { i16, [118 x i8], i64 }
%struct.slurmdb_cluster_rec = type { ptr, i16, i64, %struct.sockaddr_storage, ptr, i32, i16, ptr, i16, %struct.slurmdb_cluster_fed_t, i32, %union.pthread_mutex_t, ptr, ptr, ptr, i16, ptr, ptr }
%struct.slurmdb_cluster_fed_t = type { ptr, i32, ptr, ptr, ptr, i32, i8, i8 }
%struct.slurm_protocol_config_t = type { i32, ptr, i8, %struct.sockaddr_storage }

@slurm_conf = external global %struct.slurm_conf_t, align 8
@.str.9 = private unnamed_addr constant [36 x i8] c"Error: Unable to set default config\00", align 1
@.str.10 = private unnamed_addr constant [38 x i8] c"NET: %s: slurm_open_msg_conn(%pA): %m\00", align 1
@__func__.slurm_open_controller_conn_spec = private unnamed_addr constant [32 x i8] c"slurm_open_controller_conn_spec\00", align 1

; Function Attrs: nounwind uwtable
define internal void @_slurm_api_free_comm_config(ptr noundef %0) #0 {
  %2 = alloca ptr, align 8
  store ptr %0, ptr %2, align 8
  %3 = load ptr, ptr %2, align 8
  %4 = icmp ne ptr %3, null
  br i1 %4, label %5, label %8

5:                                                ; preds = %1
  %6 = load ptr, ptr %2, align 8
  %7 = getelementptr inbounds nuw %struct.slurm_protocol_config_t, ptr %6, i32 0, i32 1
  call void @slurm_xfree(ptr noundef %7)
  call void @slurm_xfree(ptr noundef %2)
  br label %8

8:                                                ; preds = %5, %1
  ret void
}

; Function Attrs: nounwind uwtable
define internal void @_remap_slurmctld_errno() #0 {
  %1 = alloca i32, align 4
  call void @llvm.lifetime.start.p0(i64 4, ptr %1) #12
  %2 = call ptr @__errno_location() #14
  %3 = load i32, ptr %2, align 4
  store i32 %3, ptr %1, align 4
  %4 = load i32, ptr %1, align 4
  %5 = icmp eq i32 %4, 1001
  br i1 %5, label %6, label %8

6:                                                ; preds = %0
  %7 = call ptr @__errno_location() #14
  store i32 1800, ptr %7, align 4
  br label %26

8:                                                ; preds = %0
  %9 = load i32, ptr %1, align 4
  %10 = icmp eq i32 %9, 1002
  br i1 %10, label %11, label %13

11:                                               ; preds = %8
  %12 = call ptr @__errno_location() #14
  store i32 1801, ptr %12, align 4
  br label %25

13:                                               ; preds = %8
  %14 = load i32, ptr %1, align 4
  %15 = icmp eq i32 %14, 1003
  br i1 %15, label %16, label %18

16:                                               ; preds = %13
  %17 = call ptr @__errno_location() #14
  store i32 1802, ptr %17, align 4
  br label %24

18:                                               ; preds = %13
  %19 = load i32, ptr %1, align 4
  %20 = icmp eq i32 %19, 1004
  br i1 %20, label %21, label %23

21:                                               ; preds = %18
  %22 = call ptr @__errno_location() #14
  store i32 1803, ptr %22, align 4
  br label %23

23:                                               ; preds = %21, %18
  br label %24

24:                                               ; preds = %23, %16
  br label %25

25:                                               ; preds = %24, %11
  br label %26

26:                                               ; preds = %25, %6
  call void @llvm.lifetime.end.p0(i64 4, ptr %1) #12
  ret void
}

; Function Attrs: nounwind uwtable
define dso_local i32 @slurm_open_msg_conn(ptr noundef %0) #0 {
  %2 = alloca ptr, align 8
  %3 = alloca i32, align 4
  store ptr %0, ptr %2, align 8
  call void @llvm.lifetime.start.p0(i64 4, ptr %3) #12
  %4 = load ptr, ptr %2, align 8
  %5 = call i32 @slurm_open_stream(ptr noundef %4, i1 noundef zeroext false)
  store i32 %5, ptr %3, align 4
  %6 = load i32, ptr %3, align 4
  call void @llvm.lifetime.end.p0(i64 4, ptr %3) #12
  ret i32 %6
}

; Function Attrs: nounwind uwtable
define dso_local i32 @slurm_open_controller_conn_spec(i32 noundef %0, ptr noundef %1) #0 {
  %3 = alloca i32, align 4
  %4 = alloca i32, align 4
  %5 = alloca ptr, align 8
  %6 = alloca ptr, align 8
  %7 = alloca ptr, align 8
  %8 = alloca i32, align 4
  %9 = alloca i32, align 4
  store i32 %0, ptr %4, align 4
  store ptr %1, ptr %5, align 8
  call void @llvm.lifetime.start.p0(i64 8, ptr %6) #12
  store ptr null, ptr %6, align 8
  call void @llvm.lifetime.start.p0(i64 8, ptr %7) #12
  call void @llvm.lifetime.start.p0(i64 4, ptr %8) #12
  %10 = load ptr, ptr %5, align 8
  %11 = icmp ne ptr %10, null
  br i1 %11, label %12, label %29

12:                                               ; preds = %2
  %13 = load ptr, ptr %5, align 8
  %14 = getelementptr inbounds nuw %struct.slurmdb_cluster_rec, ptr %13, i32 0, i32 3
  %15 = call zeroext i1 @slurm_addr_is_unspec(ptr noundef %14)
  br i1 %15, label %16, label %26

16:                                               ; preds = %12
  %17 = load ptr, ptr %5, align 8
  %18 = getelementptr inbounds nuw %struct.slurmdb_cluster_rec, ptr %17, i32 0, i32 3
  %19 = load ptr, ptr %5, align 8
  %20 = getelementptr inbounds nuw %struct.slurmdb_cluster_rec, ptr %19, i32 0, i32 5
  %21 = load i32, ptr %20, align 8
  %22 = trunc i32 %21 to i16
  %23 = load ptr, ptr %5, align 8
  %24 = getelementptr inbounds nuw %struct.slurmdb_cluster_rec, ptr %23, i32 0, i32 4
  %25 = load ptr, ptr %24, align 8
  call void @slurm_set_addr(ptr noundef %18, i16 noundef zeroext %22, ptr noundef %25)
  br label %26

26:                                               ; preds = %16, %12
  %27 = load ptr, ptr %5, align 8
  %28 = getelementptr inbounds nuw %struct.slurmdb_cluster_rec, ptr %27, i32 0, i32 3
  store ptr %28, ptr %7, align 8
  br label %64

29:                                               ; preds = %2
  %30 = call ptr @_slurm_api_get_comm_config()
  store ptr %30, ptr %6, align 8
  %31 = icmp ne ptr %30, null
  br i1 %31, label %43, label %32

32:                                               ; preds = %29
  br label %33

33:                                               ; preds = %32
  br label %34

34:                                               ; preds = %33
  %35 = call i32 @get_log_level()
  %36 = icmp sge i32 %35, 7
  br i1 %36, label %37, label %38

37:                                               ; preds = %34
  call void (i32, ptr, ...) @log_var(i32 noundef 7, ptr noundef @.str.9)
  br label %38

38:                                               ; preds = %37, %34
  br label %39

39:                                               ; preds = %38
  br label %40

40:                                               ; preds = %39
  br label %41

41:                                               ; preds = %40
  br label %42

42:                                               ; preds = %41
  store i32 -1, ptr %3, align 4
  store i32 1, ptr %9, align 4
  br label %90

43:                                               ; preds = %29
  store ptr null, ptr %7, align 8
  %44 = load i32, ptr %4, align 4
  %45 = icmp sge i32 %44, 0
  br i1 %45, label %46, label %59

46:                                               ; preds = %43
  %47 = load i32, ptr %4, align 4
  %48 = load ptr, ptr %6, align 8
  %49 = getelementptr inbounds nuw %struct.slurm_protocol_config_t, ptr %48, i32 0, i32 0
  %50 = load i32, ptr %49, align 8
  %51 = icmp ule i32 %47, %50
  br i1 %51, label %52, label %59

52:                                               ; preds = %46
  %53 = load ptr, ptr %6, align 8
  %54 = getelementptr inbounds nuw %struct.slurm_protocol_config_t, ptr %53, i32 0, i32 1
  %55 = load ptr, ptr %54, align 8
  %56 = load i32, ptr %4, align 4
  %57 = sext i32 %56 to i64
  %58 = getelementptr inbounds %struct.sockaddr_storage, ptr %55, i64 %57
  store ptr %58, ptr %7, align 8
  br label %59

59:                                               ; preds = %52, %46, %43
  %60 = load ptr, ptr %7, align 8
  %61 = icmp ne ptr %60, null
  br i1 %61, label %63, label %62

62:                                               ; preds = %59
  store i32 -1, ptr %8, align 4
  br label %87

63:                                               ; preds = %59
  br label %64

64:                                               ; preds = %63, %26
  %65 = load ptr, ptr %7, align 8
  %66 = call i32 @slurm_open_msg_conn(ptr noundef %65)
  store i32 %66, ptr %8, align 4
  %67 = load i32, ptr %8, align 4
  %68 = icmp eq i32 %67, -1
  br i1 %68, label %69, label %86

69:                                               ; preds = %64
  br label %70

70:                                               ; preds = %69
  %71 = load i64, ptr getelementptr inbounds nuw (%struct.slurm_conf_t, ptr @slurm_conf, i32 0, i32 42), align 8
  %72 = and i64 %71, 1024
  %73 = icmp ne i64 %72, 0
  br i1 %73, label %74, label %83

74:                                               ; preds = %70
  br label %75

75:                                               ; preds = %74
  %76 = call i32 @get_log_level()
  %77 = icmp sge i32 %76, 4
  br i1 %77, label %78, label %80

78:                                               ; preds = %75
  %79 = load ptr, ptr %7, align 8
  call void (i32, ptr, ...) @log_var(i32 noundef 4, ptr noundef @.str.10, ptr noundef @__func__.slurm_open_controller_conn_spec, ptr noundef %79)
  br label %80

80:                                               ; preds = %78, %75
  br label %81

81:                                               ; preds = %80
  br label %82

82:                                               ; preds = %81
  br label %83

83:                                               ; preds = %82, %70
  br label %84

84:                                               ; preds = %83
  br label %85

85:                                               ; preds = %84
  call void @_remap_slurmctld_errno()
  br label %86

86:                                               ; preds = %85, %64
  br label %87

87:                                               ; preds = %86, %62
  %88 = load ptr, ptr %6, align 8
  call void @_slurm_api_free_comm_config(ptr noundef %88)
  %89 = load i32, ptr %8, align 4
  store i32 %89, ptr %3, align 4
  store i32 1, ptr %9, align 4
  br label %90

90:                                               ; preds = %87, %42
  call void @llvm.lifetime.end.p0(i64 4, ptr %8) #12
  call void @llvm.lifetime.end.p0(i64 8, ptr %7) #12
  call void @llvm.lifetime.end.p0(i64 8, ptr %6) #12
  %91 = load i32, ptr %3, align 4
  ret i32 %91
}