; Function Attrs: nounwind uwtable
define dso_local i32 @slurm_open_controller_conn_spec(i32 noundef %0, ptr noundef %1) local_unnamed_addr #1 {
  %3 = alloca ptr, align 8
  %.not = icmp eq ptr %1, null
  br i1 %.not, label %13, label %4

4:                                                ; preds = %2
  %5 = getelementptr inbounds nuw i8, ptr %1, i64 24
  %6 = tail call zeroext i1 @slurm_addr_is_unspec(ptr noundef nonnull %5) #19
  br i1 %6, label %7, label %28

7:                                                ; preds = %4
  %8 = getelementptr inbounds nuw i8, ptr %1, i64 160
  %9 = load i32, ptr %8, align 8
  %10 = trunc i32 %9 to i16
  %11 = getelementptr inbounds nuw i8, ptr %1, i64 152
  %12 = load ptr, ptr %11, align 8
  tail call void @slurm_set_addr(ptr noundef nonnull %5, i16 noundef zeroext %10, ptr noundef %12) #19
  br label %28

13:                                               ; preds = %2
  %14 = tail call fastcc ptr @_slurm_api_get_comm_config()
  %.not26 = icmp eq ptr %14, null
  br i1 %.not26, label %15, label %19

15:                                               ; preds = %13
  %16 = tail call i32 @get_log_level() #19
  %17 = icmp sgt i32 %16, 6
  br i1 %17, label %18, label %44

18:                                               ; preds = %15
  tail call void (i32, ptr, ...) @log_var(i32 noundef 7, ptr noundef nonnull @.str.9) #19
  br label %44

19:                                               ; preds = %13
  %20 = icmp sgt i32 %0, -1
  br i1 %20, label %21, label %_remap_slurmctld_errno.exit.thread

21:                                               ; preds = %19
  %22 = load i32, ptr %14, align 8
  %.not27 = icmp ugt i32 %0, %22
  br i1 %.not27, label %_remap_slurmctld_errno.exit.thread, label %23

23:                                               ; preds = %21
  %24 = getelementptr inbounds nuw i8, ptr %14, i64 8
  %25 = load ptr, ptr %24, align 8
  %26 = zext nneg i32 %0 to i64
  %27 = getelementptr inbounds nuw %struct.sockaddr_storage, ptr %25, i64 %26
  %.not28 = icmp eq ptr %25, null
  br i1 %.not28, label %_remap_slurmctld_errno.exit.thread, label %28

28:                                               ; preds = %4, %7, %23
  %.018 = phi ptr [ %14, %23 ], [ null, %7 ], [ null, %4 ]
  %.017 = phi ptr [ %27, %23 ], [ %5, %7 ], [ %5, %4 ]
  %29 = tail call i32 @slurm_open_stream(ptr noundef nonnull %.017, i1 noundef zeroext false) #19
  %30 = icmp eq i32 %29, -1
  br i1 %30, label %31, label %_remap_slurmctld_errno.exit

31:                                               ; preds = %28
  %32 = load i64, ptr getelementptr inbounds nuw (i8, ptr @slurm_conf, i64 320), align 8
  %33 = and i64 %32, 1024
  %.not29 = icmp eq i64 %33, 0
  br i1 %.not29, label %38, label %34

34:                                               ; preds = %31
  %35 = tail call i32 @get_log_level() #19
  %36 = icmp sgt i32 %35, 3
  br i1 %36, label %37, label %38

37:                                               ; preds = %34
  tail call void (i32, ptr, ...) @log_var(i32 noundef 4, ptr noundef nonnull @.str.10, ptr noundef nonnull @__func__.slurm_open_controller_conn_spec, ptr noundef nonnull %.017) #19
  br label %38

38:                                               ; preds = %34, %37, %31
  %39 = tail call ptr @__errno_location() #21
  %40 = load i32, ptr %39, align 4
  %switch.tableidx = add i32 %40, -1001
  %41 = icmp ult i32 %switch.tableidx, 4
  br i1 %41, label %switch.lookup, label %_remap_slurmctld_errno.exit

switch.lookup:                                    ; preds = %38
  %switch.offset = add nuw nsw i32 %40, 799
  store i32 %switch.offset, ptr %39, align 4
  br label %_remap_slurmctld_errno.exit

_remap_slurmctld_errno.exit.thread:               ; preds = %23, %21, %19
  call void @llvm.lifetime.start.p0(i64 8, ptr nonnull %3)
  store ptr %14, ptr %3, align 8
  br label %42

_remap_slurmctld_errno.exit:                      ; preds = %38, %switch.lookup, %28
  call void @llvm.lifetime.start.p0(i64 8, ptr nonnull %3)
  store ptr %.018, ptr %3, align 8
  %.not.i = icmp eq ptr %.018, null
  br i1 %.not.i, label %_slurm_api_free_comm_config.exit, label %42

42:                                               ; preds = %_remap_slurmctld_errno.exit.thread, %_remap_slurmctld_errno.exit
  %.036 = phi i32 [ -1, %_remap_slurmctld_errno.exit.thread ], [ %29, %_remap_slurmctld_errno.exit ]
  %.11935 = phi ptr [ %14, %_remap_slurmctld_errno.exit.thread ], [ %.018, %_remap_slurmctld_errno.exit ]
  %43 = getelementptr inbounds nuw i8, ptr %.11935, i64 8
  tail call void @slurm_xfree(ptr noundef nonnull %43) #19
  call void @slurm_xfree(ptr noundef nonnull %3) #19
  br label %_slurm_api_free_comm_config.exit

_slurm_api_free_comm_config.exit:                 ; preds = %_remap_slurmctld_errno.exit, %42
  %.037 = phi i32 [ %29, %_remap_slurmctld_errno.exit ], [ %.036, %42 ]
  call void @llvm.lifetime.end.p0(i64 8, ptr nonnull %3)
  br label %44

44:                                               ; preds = %15, %18, %_slurm_api_free_comm_config.exit
  %.020 = phi i32 [ %.037, %_slurm_api_free_comm_config.exit ], [ -1, %18 ], [ -1, %15 ]
  ret i32 %.020
}